target datalayout = "e-m:e-p270:32:32-p271:32:32-p272:64:64-i64:64-i128:128-f80:128-n8:16:32:64-S128"
target triple = "x86_64-unknown-linux-gnu"

%struct.anon = type { ptr, ptr, ptr, %struct.QemuMutex, ptr, ptr }
%struct.QemuMutex = type { %union.pthread_mutex_t, i8 }
%union.pthread_mutex_t = type { %struct.__pthread_mutex_s }
%struct.__pthread_mutex_s = type { i32, i32, i32, i32, i32, i16, i16, %struct.__pthread_internal_list }
%struct.__pthread_internal_list = type { ptr, ptr }
%struct.RAMList = type { %struct.QemuMutex, ptr, %struct.anon.0, [3 x ptr], i32, %struct.anon.1 }
%struct.anon.0 = type { ptr }
%struct.anon.1 = type { ptr }
%struct.RAMBlock = type { %struct.rcu_head, ptr, ptr, ptr, i64, i64, i64, ptr, i32, [256 x i8], %struct.anon.2, %struct.anon.3, i32, i64, i64, ptr, ptr, ptr, i8, i64 }
%struct.rcu_head = type { ptr, ptr }
%struct.anon.2 = type { ptr, ptr }
%struct.anon.3 = type { ptr }

@.str = private unnamed_addr constant [24 x i8] c"../qemu/migration/ram.c\00", align 1
@XBZRLE = internal global %struct.anon zeroinitializer, align 8
@ram_list = external global %struct.RAMList, align 8
@__func__.ramblock_recv_map_init = private unnamed_addr constant [23 x i8] c"ramblock_recv_map_init\00", align 1
@.str.113 = private unnamed_addr constant [17 x i8] c"!rb->receivedmap\00", align 1
@__PRETTY_FUNCTION__.ramblock_recv_map_init = private unnamed_addr constant [34 x i8] c"void ramblock_recv_map_init(void)\00", align 1

; Function Attrs: nounwind sspstrong uwtable
define internal ptr @bitmap_try_new(i64 noundef %nbits) #0 {
entry:
  %nbits.addr = alloca i64, align 8
  %len = alloca i64, align 8
  store i64 %nbits, ptr %nbits.addr, align 8
  %0 = load i64, ptr %nbits.addr, align 8
  %add = add i64 %0, 64
  %sub = sub i64 %add, 1
  %div = udiv i64 %sub, 64
  %mul = mul i64 %div, 8
  store i64 %mul, ptr %len, align 8
  %1 = load i64, ptr %len, align 8
  %call = call noalias ptr @g_try_malloc0(i64 noundef %1) #18
  ret ptr %call
}

; Function Attrs: nounwind sspstrong uwtable
define internal ptr @bitmap_new(i64 noundef %nbits) #0 {
entry:
  %nbits.addr = alloca i64, align 8
  %ptr = alloca ptr, align 8
  store i64 %nbits, ptr %nbits.addr, align 8
  %0 = load i64, ptr %nbits.addr, align 8
  %call = call ptr @bitmap_try_new(i64 noundef %0)
  store ptr %call, ptr %ptr, align 8
  %1 = load ptr, ptr %ptr, align 8
  %cmp = icmp eq ptr %1, null
  br i1 %cmp, label %if.then, label %if.end

if.then:                                          ; preds = %entry
  call void @abort() #14
  unreachable

if.end:                                           ; preds = %entry
  %2 = load ptr, ptr %ptr, align 8
  ret ptr %2
}

; Function Attrs: nounwind sspstrong uwtable
define dso_local zeroext i1 @migrate_ram_is_ignored(ptr noundef %block) #0 {
entry:
  %block.addr = alloca ptr, align 8
  store ptr %block, ptr %block.addr, align 8
  %0 = load ptr, ptr %block.addr, align 8
  %call = call zeroext i1 @qemu_ram_is_migratable(ptr noundef %0)
  br i1 %call, label %lor.rhs, label %lor.end

lor.rhs:                                          ; preds = %entry
  %call1 = call zeroext i1 @migrate_ignore_shared()
  br i1 %call1, label %land.lhs.true, label %land.end

land.lhs.true:                                    ; preds = %lor.rhs
  %1 = load ptr, ptr %block.addr, align 8
  %call2 = call zeroext i1 @qemu_ram_is_shared(ptr noundef %1)
  br i1 %call2, label %land.rhs, label %land.end

land.rhs:                                         ; preds = %land.lhs.true
  %2 = load ptr, ptr %block.addr, align 8
  %call3 = call zeroext i1 @qemu_ram_is_named_file(ptr noundef %2)
  br label %land.end

land.end:                                         ; preds = %land.rhs, %land.lhs.true, %lor.rhs
  %3 = phi i1 [ false, %land.lhs.true ], [ false, %lor.rhs ], [ %call3, %land.rhs ]
  br label %lor.end

lor.end:                                          ; preds = %land.end, %entry
  %4 = phi i1 [ true, %entry ], [ %3, %land.end ]
  ret i1 %4
}

; Function Attrs: nounwind sspstrong uwtable
define internal void @ramblock_recv_map_init() #0 {
entry:
  %rb = alloca ptr, align 8
  %_val22 = alloca ptr, align 8
  %tmp = alloca ptr, align 8
  %_val23 = alloca ptr, align 8
  %tmp13 = alloca ptr, align 8
  br label %while.cond

while.cond:                                       ; preds = %do.end, %entry
  br i1 false, label %while.body, label %while.end

while.body:                                       ; preds = %while.cond
  br label %do.body

do.body:                                          ; preds = %while.body
  call void @g_assertion_message_expr(ptr noundef null, ptr noundef @.str, i32 noundef 230, ptr noundef @__func__.ramblock_recv_map_init, ptr noundef null) #12
  unreachable

do.end:                                           ; No predecessors!
  br label %while.cond

while.end:                                        ; preds = %while.cond
  %0 = getelementptr inbounds %struct.RAMList, ptr @ram_list, i32 0, i32 2
  %1 = load atomic i64, ptr %0 monotonic, align 8
  store i64 %1, ptr %_val22, align 8
  call void asm sideeffect "", "~{memory},~{dirflag},~{fpsr},~{flags}"() #13, !srcloc !129
  %2 = load ptr, ptr %_val22, align 8
  store ptr %2, ptr %tmp, align 8
  %3 = load ptr, ptr %tmp, align 8
  store ptr %3, ptr %rb, align 8
  br label %for.cond

for.cond:                                         ; preds = %while.end12, %while.end
  %4 = load ptr, ptr %rb, align 8
  %tobool = icmp ne ptr %4, null
  br i1 %tobool, label %for.body, label %for.end

for.body:                                         ; preds = %for.cond
  %5 = load ptr, ptr %rb, align 8
  %call = call zeroext i1 @migrate_ram_is_ignored(ptr noundef %5)
  br i1 %call, label %if.then, label %if.else

if.then:                                          ; preds = %for.body
  br label %if.end7

if.else:                                          ; preds = %for.body
  %6 = load ptr, ptr %rb, align 8
  %receivedmap = getelementptr inbounds %struct.RAMBlock, ptr %6, i32 0, i32 16
  %7 = load ptr, ptr %receivedmap, align 8
  %tobool1 = icmp ne ptr %7, null
  br i1 %tobool1, label %if.else3, label %if.then2

if.then2:                                         ; preds = %if.else
  br label %if.end

if.else3:                                         ; preds = %if.else
  call void @__assert_fail(ptr noundef @.str.113, ptr noundef @.str, i32 noundef 231, ptr noundef @__PRETTY_FUNCTION__.ramblock_recv_map_init) #14
  unreachable

if.end:                                           ; preds = %if.then2
  %8 = load ptr, ptr %rb, align 8
  %max_length = getelementptr inbounds %struct.RAMBlock, ptr %8, i32 0, i32 6
  %9 = load i64, ptr %max_length, align 8
  %call4 = call i32 @qemu_target_page_bits()
  %sh_prom = zext i32 %call4 to i64
  %shr = lshr i64 %9, %sh_prom
  %call5 = call ptr @bitmap_new(i64 noundef %shr)
  %10 = load ptr, ptr %rb, align 8
  %receivedmap6 = getelementptr inbounds %struct.RAMBlock, ptr %10, i32 0, i32 16
  store ptr %call5, ptr %receivedmap6, align 8
  br label %if.end7

if.end7:                                          ; preds = %if.end, %if.then
  br label %for.inc

for.inc:                                          ; preds = %if.end7
  br label %while.cond8

while.cond8:                                      ; preds = %do.end11, %for.inc
  br i1 false, label %while.body9, label %while.end12

while.body9:                                      ; preds = %while.cond8
  br label %do.body10

do.body10:                                        ; preds = %while.body9
  call void @g_assertion_message_expr(ptr noundef null, ptr noundef @.str, i32 noundef 230, ptr noundef @__func__.ramblock_recv_map_init, ptr noundef null) #12
  unreachable

do.end11:                                         ; No predecessors!
  br label %while.cond8

while.end12:                                      ; preds = %while.cond8
  %11 = load ptr, ptr %rb, align 8
  %next = getelementptr inbounds %struct.RAMBlock, ptr %11, i32 0, i32 10
  %le_next = getelementptr inbounds %struct.anon.2, ptr %next, i32 0, i32 0
  %12 = load atomic i64, ptr %le_next monotonic, align 8
  store i64 %12, ptr %_val23, align 8
  call void asm sideeffect "", "~{memory},~{dirflag},~{fpsr},~{flags}"() #13, !srcloc !130
  %13 = load ptr, ptr %_val23, align 8
  store ptr %13, ptr %tmp13, align 8
  %14 = load ptr, ptr %tmp13, align 8
  store ptr %14, ptr %rb, align 8
  br label %for.cond, !llvm.loop !131

for.end:                                          ; preds = %for.cond
  ret void
}

; Function Attrs: nounwind sspstrong uwtable
define internal void @xbzrle_load_setup() #0 {
entry:
  %call = call noalias ptr @g_malloc(i64 noundef 4096) #18
  %0 = getelementptr inbounds %struct.anon, ptr @XBZRLE, i32 0, i32 5
  store ptr %call, ptr %0, align 8
  ret void
}

; Function Attrs: nounwind sspstrong uwtable
define internal i32 @ram_load_setup(ptr noundef %f, ptr noundef %opaque) #0 {
entry:
  %f.addr = alloca ptr, align 8
  %opaque.addr = alloca ptr, align 8
  store ptr %f, ptr %f.addr, align 8
  store ptr %opaque, ptr %opaque.addr, align 8
  call void @xbzrle_load_setup()
  call void @ramblock_recv_map_init()
  ret i32 0
}