; Function Attrs: nounwind sspstrong uwtable
define internal noundef i32 @ram_load_setup(ptr readnone captures(none) %f, ptr readnone captures(none) %opaque) #0 {
entry:
  %call.i = tail call noalias dereferenceable_or_null(4096) ptr @g_malloc(i64 noundef 4096) #20
  store ptr %call.i, ptr getelementptr inbounds nuw (i8, ptr @XBZRLE, i64 80), align 8
  %0 = load atomic i64, ptr getelementptr inbounds nuw (i8, ptr @ram_list, i64 56) monotonic, align 8
  tail call void asm sideeffect "", "~{memory},~{dirflag},~{fpsr},~{flags}"() #18, !srcloc !105
  %tobool.not8.i = icmp eq i64 %0, 0
  br i1 %tobool.not8.i, label %ramblock_recv_map_init.exit, label %for.body.i

for.body.i:                                       ; preds = %entry, %while.end12.i
  %rb.09.in.i = phi i64 [ %4, %while.end12.i ], [ %0, %entry ]
  %rb.09.i = inttoptr i64 %rb.09.in.i to ptr
  %call.i.i = tail call zeroext i1 @qemu_ram_is_migratable(ptr noundef nonnull %rb.09.i) #18
  br i1 %call.i.i, label %lor.rhs.i.i, label %while.end12.i

lor.rhs.i.i:                                      ; preds = %for.body.i
  %call1.i.i = tail call zeroext i1 @migrate_ignore_shared() #18
  br i1 %call1.i.i, label %land.lhs.true.i.i, label %if.else.i

land.lhs.true.i.i:                                ; preds = %lor.rhs.i.i
  %call2.i.i = tail call zeroext i1 @qemu_ram_is_shared(ptr noundef nonnull %rb.09.i) #18
  br i1 %call2.i.i, label %migrate_ram_is_ignored.exit.i, label %if.else.i

migrate_ram_is_ignored.exit.i:                    ; preds = %land.lhs.true.i.i
  %call3.i.i = tail call zeroext i1 @qemu_ram_is_named_file(ptr noundef nonnull %rb.09.i) #18
  br i1 %call3.i.i, label %while.end12.i, label %if.else.i

if.else.i:                                        ; preds = %migrate_ram_is_ignored.exit.i, %land.lhs.true.i.i, %lor.rhs.i.i
  %receivedmap.i = getelementptr inbounds nuw i8, ptr %rb.09.i, i64 392
  %1 = load ptr, ptr %receivedmap.i, align 8
  %tobool1.not.i = icmp eq ptr %1, null
  br i1 %tobool1.not.i, label %if.end.i, label %if.else3.i

if.else3.i:                                       ; preds = %if.else.i
  tail call void @__assert_fail(ptr noundef nonnull @.str.113, ptr noundef nonnull @.str, i32 noundef 231, ptr noundef nonnull @__PRETTY_FUNCTION__.ramblock_recv_map_init) #19
  unreachable

if.end.i:                                         ; preds = %if.else.i
  %max_length.i = getelementptr inbounds nuw i8, ptr %rb.09.i, i64 56
  %2 = load i64, ptr %max_length.i, align 8
  %call4.i = tail call i32 @qemu_target_page_bits() #18
  %sh_prom.i = zext nneg i32 %call4.i to i64
  %shr.i = lshr i64 %2, %sh_prom.i
  %sub.i.i.i = add i64 %shr.i, 63
  %3 = lshr i64 %sub.i.i.i, 3
  %mul.i.i.i = and i64 %3, 2305843009213693944
  %call.i.i.i = tail call noalias ptr @g_try_malloc0(i64 noundef %mul.i.i.i) #20
  %cmp.i.i = icmp eq ptr %call.i.i.i, null
  br i1 %cmp.i.i, label %if.then.i.i, label %bitmap_new.exit.i

if.then.i.i:                                      ; preds = %if.end.i
  tail call void @abort() #19
  unreachable

bitmap_new.exit.i:                                ; preds = %if.end.i
  store ptr %call.i.i.i, ptr %receivedmap.i, align 8
  br label %while.end12.i

while.end12.i:                                    ; preds = %bitmap_new.exit.i, %migrate_ram_is_ignored.exit.i, %for.body.i
  %next.i = getelementptr inbounds nuw i8, ptr %rb.09.i, i64 336
  %4 = load atomic i64, ptr %next.i monotonic, align 8
  tail call void asm sideeffect "", "~{memory},~{dirflag},~{fpsr},~{flags}"() #18, !srcloc !106
  %tobool.not.i = icmp eq i64 %4, 0
  br i1 %tobool.not.i, label %ramblock_recv_map_init.exit, label %for.body.i, !llvm.loop !107

ramblock_recv_map_init.exit:                      ; preds = %while.end12.i, %entry
  ret i32 0
}